; Function Attrs: mustprogress nounwind uwtable
define internal void @_ZNK12_GLOBAL__N_112EnumArgument10writeValueERN4llvm11raw_ostreamE(ptr noundef nonnull align 8 dereferenceable(218) %0, ptr noundef nonnull align 8 dereferenceable(48) %1) unnamed_addr #0 align 2 {
  %3 = getelementptr inbounds nuw i8, ptr %1, i64 24
  %4 = load ptr, ptr %3, align 8
  %5 = getelementptr inbounds nuw i8, ptr %1, i64 32
  %6 = load ptr, ptr %5, align 8
  %7 = ptrtoint ptr %4 to i64
  %8 = ptrtoint ptr %6 to i64
  %9 = sub i64 %7, %8
  %10 = icmp ult i64 %9, 7
  br i1 %10, label %11, label %13

11:                                               ; preds = %2
  %12 = tail call noundef nonnull align 8 dereferenceable(48) ptr @_ZN4llvm11raw_ostream5writeEPKcm(ptr noundef nonnull align 8 dereferenceable(48) %1, ptr noundef nonnull @.str.671, i64 noundef 7) #22
  %.phi.trans.insert = getelementptr inbounds nuw i8, ptr %12, i64 32
  %.pre = load ptr, ptr %.phi.trans.insert, align 8
  br label %_ZN4llvm11raw_ostreamlsEPKc.exit

13:                                               ; preds = %2
  tail call void @llvm.memcpy.p0.p0.i64(ptr noundef nonnull align 1 dereferenceable(7) %6, ptr noundef nonnull align 1 dereferenceable(7) @.str.671, i64 7, i1 false)
  %14 = load ptr, ptr %5, align 8
  %15 = getelementptr inbounds i8, ptr %14, i64 7
  store ptr %15, ptr %5, align 8
  br label %_ZN4llvm11raw_ostreamlsEPKc.exit

_ZN4llvm11raw_ostreamlsEPKc.exit:                 ; preds = %11, %13
  %16 = phi ptr [ %.pre, %11 ], [ %15, %13 ]
  %.0.i.i = phi ptr [ %12, %11 ], [ %1, %13 ]
  %17 = getelementptr inbounds i8, ptr %0, i64 72
  %.val = load ptr, ptr %17, align 8
  %18 = getelementptr inbounds i8, ptr %0, i64 80
  %.val6 = load i64, ptr %18, align 8
  %19 = getelementptr inbounds nuw i8, ptr %.0.i.i, i64 24
  %20 = load ptr, ptr %19, align 8
  %21 = getelementptr inbounds nuw i8, ptr %.0.i.i, i64 32
  %22 = ptrtoint ptr %20 to i64
  %23 = ptrtoint ptr %16 to i64
  %24 = sub i64 %22, %23
  %25 = icmp ugt i64 %.val6, %24
  br i1 %25, label %26, label %28

26:                                               ; preds = %_ZN4llvm11raw_ostreamlsEPKc.exit
  %27 = tail call noundef nonnull align 8 dereferenceable(48) ptr @_ZN4llvm11raw_ostream5writeEPKcm(ptr noundef nonnull align 8 dereferenceable(48) %.0.i.i, ptr noundef %.val, i64 noundef %.val6) #22
  %.phi.trans.insert24 = getelementptr inbounds nuw i8, ptr %27, i64 32
  %.pre25 = load ptr, ptr %.phi.trans.insert24, align 8
  br label %_ZN4llvm11raw_ostreamlsENS_9StringRefE.exit

28:                                               ; preds = %_ZN4llvm11raw_ostreamlsEPKc.exit
  %.not.i = icmp eq i64 %.val6, 0
  br i1 %.not.i, label %_ZN4llvm11raw_ostreamlsENS_9StringRefE.exit, label %29

29:                                               ; preds = %28
  tail call void @llvm.memcpy.p0.p0.i64(ptr align 1 %16, ptr align 1 %.val, i64 %.val6, i1 false)
  %30 = load ptr, ptr %21, align 8
  %31 = getelementptr inbounds i8, ptr %30, i64 %.val6
  store ptr %31, ptr %21, align 8
  br label %_ZN4llvm11raw_ostreamlsENS_9StringRefE.exit

_ZN4llvm11raw_ostreamlsENS_9StringRefE.exit:      ; preds = %26, %28, %29
  %32 = phi ptr [ %.pre25, %26 ], [ %31, %29 ], [ %16, %28 ]
  %.0.i = phi ptr [ %27, %26 ], [ %.0.i.i, %29 ], [ %.0.i.i, %28 ]
  %33 = getelementptr inbounds nuw i8, ptr %.0.i, i64 24
  %34 = load ptr, ptr %33, align 8
  %35 = ptrtoint ptr %34 to i64
  %36 = ptrtoint ptr %32 to i64
  %37 = sub i64 %35, %36
  %38 = icmp ult i64 %37, 13
  br i1 %38, label %39, label %41

39:                                               ; preds = %_ZN4llvm11raw_ostreamlsENS_9StringRefE.exit
  %40 = tail call noundef nonnull align 8 dereferenceable(48) ptr @_ZN4llvm11raw_ostream5writeEPKcm(ptr noundef nonnull align 8 dereferenceable(48) %.0.i, ptr noundef nonnull @.str.434, i64 noundef 13) #22
  %.phi.trans.insert26 = getelementptr inbounds nuw i8, ptr %40, i64 32
  %.pre27 = load ptr, ptr %.phi.trans.insert26, align 8
  br label %_ZN4llvm11raw_ostreamlsEPKc.exit9

41:                                               ; preds = %_ZN4llvm11raw_ostreamlsENS_9StringRefE.exit
  %42 = getelementptr inbounds nuw i8, ptr %.0.i, i64 32
  tail call void @llvm.memcpy.p0.p0.i64(ptr noundef nonnull align 1 dereferenceable(13) %32, ptr noundef nonnull align 1 dereferenceable(13) @.str.434, i64 13, i1 false)
  %43 = load ptr, ptr %42, align 8
  %44 = getelementptr inbounds i8, ptr %43, i64 13
  store ptr %44, ptr %42, align 8
  br label %_ZN4llvm11raw_ostreamlsEPKc.exit9

_ZN4llvm11raw_ostreamlsEPKc.exit9:                ; preds = %39, %41
  %45 = phi ptr [ %.pre27, %39 ], [ %44, %41 ]
  %.0.i.i8 = phi ptr [ %40, %39 ], [ %.0.i, %41 ]
  %46 = getelementptr inbounds nuw i8, ptr %0, i64 128
  %.sroa.01.0.copyload = load ptr, ptr %46, align 8
  %.sroa.22.0..sroa_idx = getelementptr inbounds i8, ptr %0, i64 136
  %.sroa.22.0.copyload = load i64, ptr %.sroa.22.0..sroa_idx, align 8
  %47 = getelementptr inbounds nuw i8, ptr %.0.i.i8, i64 24
  %48 = load ptr, ptr %47, align 8
  %49 = getelementptr inbounds nuw i8, ptr %.0.i.i8, i64 32
  %50 = ptrtoint ptr %48 to i64
  %51 = ptrtoint ptr %45 to i64
  %52 = sub i64 %50, %51
  %53 = icmp ugt i64 %.sroa.22.0.copyload, %52
  br i1 %53, label %54, label %56

54:                                               ; preds = %_ZN4llvm11raw_ostreamlsEPKc.exit9
  %55 = tail call noundef nonnull align 8 dereferenceable(48) ptr @_ZN4llvm11raw_ostream5writeEPKcm(ptr noundef nonnull align 8 dereferenceable(48) %.0.i.i8, ptr noundef %.sroa.01.0.copyload, i64 noundef %.sroa.22.0.copyload) #22
  %.phi.trans.insert28 = getelementptr inbounds nuw i8, ptr %55, i64 32
  %.pre29 = load ptr, ptr %.phi.trans.insert28, align 8
  br label %_ZN4llvm11raw_ostreamlsENS_9StringRefE.exit12

56:                                               ; preds = %_ZN4llvm11raw_ostreamlsEPKc.exit9
  %.not.i10 = icmp eq i64 %.sroa.22.0.copyload, 0
  br i1 %.not.i10, label %_ZN4llvm11raw_ostreamlsENS_9StringRefE.exit12, label %57

57:                                               ; preds = %56
  tail call void @llvm.memcpy.p0.p0.i64(ptr align 1 %45, ptr align 1 %.sroa.01.0.copyload, i64 %.sroa.22.0.copyload, i1 false)
  %58 = load ptr, ptr %49, align 8
  %59 = getelementptr inbounds i8, ptr %58, i64 %.sroa.22.0.copyload
  store ptr %59, ptr %49, align 8
  br label %_ZN4llvm11raw_ostreamlsENS_9StringRefE.exit12

_ZN4llvm11raw_ostreamlsENS_9StringRefE.exit12:    ; preds = %54, %56, %57
  %60 = phi ptr [ %.pre29, %54 ], [ %59, %57 ], [ %45, %56 ]
  %.0.i11 = phi ptr [ %55, %54 ], [ %.0.i.i8, %57 ], [ %.0.i.i8, %56 ]
  %61 = getelementptr inbounds nuw i8, ptr %.0.i11, i64 24
  %62 = load ptr, ptr %61, align 8
  %63 = ptrtoint ptr %62 to i64
  %64 = ptrtoint ptr %60 to i64
  %65 = sub i64 %63, %64
  %66 = icmp ult i64 %65, 9
  br i1 %66, label %67, label %69

67:                                               ; preds = %_ZN4llvm11raw_ostreamlsENS_9StringRefE.exit12
  %68 = tail call noundef nonnull align 8 dereferenceable(48) ptr @_ZN4llvm11raw_ostream5writeEPKcm(ptr noundef nonnull align 8 dereferenceable(48) %.0.i11, ptr noundef nonnull @.str.672, i64 noundef 9) #22
  br label %_ZN4llvm11raw_ostreamlsEPKc.exit15

69:                                               ; preds = %_ZN4llvm11raw_ostreamlsENS_9StringRefE.exit12
  %70 = getelementptr inbounds nuw i8, ptr %.0.i11, i64 32
  tail call void @llvm.memcpy.p0.p0.i64(ptr noundef nonnull align 1 dereferenceable(9) %60, ptr noundef nonnull align 1 dereferenceable(9) @.str.672, i64 9, i1 false)
  %71 = load ptr, ptr %70, align 8
  %72 = getelementptr inbounds i8, ptr %71, i64 9
  store ptr %72, ptr %70, align 8
  br label %_ZN4llvm11raw_ostreamlsEPKc.exit15

_ZN4llvm11raw_ostreamlsEPKc.exit15:               ; preds = %67, %69
  %.0.i.i14 = phi ptr [ %68, %67 ], [ %.0.i11, %69 ]
  %73 = getelementptr inbounds nuw i8, ptr %0, i64 40
  %74 = tail call noundef ptr @_ZNKSt7__cxx1112basic_stringIcSt11char_traitsIcESaIcEE4dataEv(ptr noundef nonnull align 8 dereferenceable(32) %73) #22
  %75 = tail call noundef i64 @_ZNKSt7__cxx1112basic_stringIcSt11char_traitsIcESaIcEE6lengthEv(ptr noundef nonnull align 8 dereferenceable(32) %73) #22
  %76 = getelementptr inbounds nuw i8, ptr %.0.i.i14, i64 24
  %77 = load ptr, ptr %76, align 8
  %78 = getelementptr inbounds nuw i8, ptr %.0.i.i14, i64 32
  %79 = load ptr, ptr %78, align 8
  %80 = ptrtoint ptr %77 to i64
  %81 = ptrtoint ptr %79 to i64
  %82 = sub i64 %80, %81
  %83 = icmp ugt i64 %75, %82
  br i1 %83, label %84, label %86

84:                                               ; preds = %_ZN4llvm11raw_ostreamlsEPKc.exit15
  %85 = tail call noundef nonnull align 8 dereferenceable(48) ptr @_ZN4llvm11raw_ostream5writeEPKcm(ptr noundef nonnull align 8 dereferenceable(48) %.0.i.i14, ptr noundef %74, i64 noundef %75) #22
  %.phi.trans.insert30 = getelementptr inbounds nuw i8, ptr %85, i64 32
  %.pre31 = load ptr, ptr %.phi.trans.insert30, align 8
  br label %_ZN4llvm11raw_ostreamlsENS_9StringRefE.exit20

86:                                               ; preds = %_ZN4llvm11raw_ostreamlsEPKc.exit15
  %.not.i18 = icmp eq i64 %75, 0
  br i1 %.not.i18, label %_ZN4llvm11raw_ostreamlsENS_9StringRefE.exit20, label %87

87:                                               ; preds = %86
  tail call void @llvm.memcpy.p0.p0.i64(ptr align 1 %79, ptr align 1 %74, i64 %75, i1 false)
  %88 = load ptr, ptr %78, align 8
  %89 = getelementptr inbounds i8, ptr %88, i64 %75
  store ptr %89, ptr %78, align 8
  br label %_ZN4llvm11raw_ostreamlsENS_9StringRefE.exit20

_ZN4llvm11raw_ostreamlsENS_9StringRefE.exit20:    ; preds = %84, %86, %87
  %90 = phi ptr [ %.pre31, %84 ], [ %89, %87 ], [ %79, %86 ]
  %.0.i19 = phi ptr [ %85, %84 ], [ %.0.i.i14, %87 ], [ %.0.i.i14, %86 ]
  %91 = getelementptr inbounds nuw i8, ptr %.0.i19, i64 24
  %92 = load ptr, ptr %91, align 8
  %93 = ptrtoint ptr %92 to i64
  %94 = ptrtoint ptr %90 to i64
  %95 = sub i64 %93, %94
  %96 = icmp ult i64 %95, 10
  br i1 %96, label %97, label %99

97:                                               ; preds = %_ZN4llvm11raw_ostreamlsENS_9StringRefE.exit20
  %98 = tail call noundef nonnull align 8 dereferenceable(48) ptr @_ZN4llvm11raw_ostream5writeEPKcm(ptr noundef nonnull align 8 dereferenceable(48) %.0.i19, ptr noundef nonnull @.str.673, i64 noundef 10) #22
  br label %_ZN4llvm11raw_ostreamlsEPKc.exit23

99:                                               ; preds = %_ZN4llvm11raw_ostreamlsENS_9StringRefE.exit20
  %100 = getelementptr inbounds nuw i8, ptr %.0.i19, i64 32
  tail call void @llvm.memcpy.p0.p0.i64(ptr noundef nonnull align 1 dereferenceable(10) %90, ptr noundef nonnull align 1 dereferenceable(10) @.str.673, i64 10, i1 false)
  %101 = load ptr, ptr %100, align 8
  %102 = getelementptr inbounds i8, ptr %101, i64 10
  store ptr %102, ptr %100, align 8
  br label %_ZN4llvm11raw_ostreamlsEPKc.exit23

_ZN4llvm11raw_ostreamlsEPKc.exit23:               ; preds = %97, %99
  ret void
}